; Function Attrs: mustprogress nounwind uwtable
define hidden noundef zeroext i1 @_ZNK10RegionNode23is_possible_unsafe_loopEPK8PhaseGVN(ptr nocapture noundef nonnull readonly align 8 dereferenceable(60) %0, ptr nocapture noundef readnone %1) local_unnamed_addr #2 align 2 {
  %3 = getelementptr inbounds i8, ptr %0, i64 32
  %4 = load i32, ptr %3, align 8
  %.not27 = icmp eq i32 %4, 0
  br i1 %.not27, label %._crit_edge, label %.lr.ph

.lr.ph:                                           ; preds = %2
  %5 = getelementptr inbounds i8, ptr %0, i64 16
  %6 = zext i32 %4 to i64
  br label %7

7:                                                ; preds = %.lr.ph, %40
  %indvars.iv = phi i64 [ 0, %.lr.ph ], [ %indvars.iv.next, %40 ]
  %8 = phi i1 [ true, %.lr.ph ], [ %41, %40 ]
  %9 = load ptr, ptr %5, align 8
  %10 = getelementptr inbounds ptr, ptr %9, i64 %indvars.iv
  %11 = load ptr, ptr %10, align 8
  %.not = icmp eq ptr %11, null
  br i1 %.not, label %40, label %12

12:                                               ; preds = %7
  %13 = getelementptr inbounds i8, ptr %11, i64 44
  %14 = load i32, ptr %13, align 4
  %15 = and i32 %14, 15
  %16 = icmp eq i32 %15, 12
  br i1 %16, label %17, label %40

17:                                               ; preds = %12
  %18 = getelementptr inbounds i8, ptr %11, i64 32
  %19 = load i32, ptr %18, align 8
  switch i32 %19, label %34 [
    i32 0, label %40
    i32 1, label %20
  ]

20:                                               ; preds = %17
  %21 = getelementptr inbounds i8, ptr %11, i64 16
  %22 = load ptr, ptr %21, align 8
  %23 = load ptr, ptr %22, align 8
  %.not21 = icmp eq ptr %23, null
  br i1 %.not21, label %34, label %24

24:                                               ; preds = %20
  %25 = getelementptr inbounds i8, ptr %23, i64 44
  %26 = load i32, ptr %25, align 4
  %27 = and i32 %26, 15
  %28 = icmp eq i32 %27, 12
  br i1 %28, label %40, label %29

29:                                               ; preds = %24
  %30 = load ptr, ptr %23, align 8
  %31 = getelementptr inbounds i8, ptr %30, i64 16
  %32 = load ptr, ptr %31, align 8
  %33 = tail call noundef zeroext i1 %32(ptr noundef nonnull align 8 dereferenceable(52) %23) #10
  br i1 %33, label %40, label %34

34:                                               ; preds = %17, %20, %29
  %35 = getelementptr inbounds i8, ptr %11, i64 8
  %36 = load ptr, ptr %35, align 8
  %37 = getelementptr inbounds i8, ptr %36, i64 8
  %38 = load ptr, ptr %37, align 8
  %39 = tail call noundef i32 @_ZNK7PhiNode22simple_data_loop_checkEP4Node(ptr noundef nonnull align 8 dereferenceable(88) %11, ptr noundef %38)
  %.not22 = icmp eq i32 %39, 0
  br i1 %.not22, label %40, label %._crit_edge

40:                                               ; preds = %17, %7, %12, %34, %24, %29
  %indvars.iv.next = add nuw nsw i64 %indvars.iv, 1
  %41 = icmp ult i64 %indvars.iv.next, %6
  %exitcond.not = icmp eq i64 %indvars.iv.next, %6
  br i1 %exitcond.not, label %._crit_edge, label %7, !llvm.loop !10

._crit_edge:                                      ; preds = %40, %34, %2
  %.lcssa = phi i1 [ false, %2 ], [ %8, %34 ], [ %41, %40 ]
  ret i1 %.lcssa
}